target datalayout = "e-m:e-p270:32:32-p271:32:32-p272:64:64-i64:64-i128:128-f80:128-n8:16:32:64-S128"
target triple = "x86_64-pc-linux-gnu"

%"struct.dap::TypeInfo" = type { ptr }
%"class.std::__cxx11::basic_string" = type { %"struct.std::__cxx11::basic_string<char>::_Alloc_hider", i64, %union.anon }
%"struct.std::__cxx11::basic_string<char>::_Alloc_hider" = type { ptr }
%union.anon = type { i64, [8 x i8] }
%struct.TI.250 = type { %"struct.dap::BasicTypeInfo.251" }
%"struct.dap::BasicTypeInfo.251" = type { %"struct.dap::TypeInfo", %"class.std::__cxx11::basic_string" }

@__dso_handle = external hidden global i8
@_ZZN3dap6TypeOfINS_18WriteMemoryRequestEE4typeEvE8typeinfo = internal global %struct.TI.250 zeroinitializer, align 8
@_ZGVZN3dap6TypeOfINS_18WriteMemoryRequestEE4typeEvE8typeinfo = internal global i64 0, align 8

; Function Attrs: mustprogress uwtable
define dso_local noundef ptr @_ZN3dap6TypeOfINS_18WriteMemoryRequestEE4typeEv() #0 align 2 personality ptr @__gxx_personality_v0 {
  %1 = alloca ptr, align 8
  %2 = alloca i32, align 4
  %3 = load atomic i8, ptr @_ZGVZN3dap6TypeOfINS_18WriteMemoryRequestEE4typeEvE8typeinfo acquire, align 8
  %4 = icmp eq i8 %3, 0
  br i1 %4, label %5, label %11, !prof !5

5:                                                ; preds = %0
  %6 = call i32 @__cxa_guard_acquire(ptr @_ZGVZN3dap6TypeOfINS_18WriteMemoryRequestEE4typeEvE8typeinfo) #3
  %7 = icmp ne i32 %6, 0
  br i1 %7, label %8, label %11

8:                                                ; preds = %5
  invoke void @_ZZN3dap6TypeOfINS_18WriteMemoryRequestEE4typeEvEN2TIC2Ev(ptr noundef nonnull align 8 dereferenceable(40) @_ZZN3dap6TypeOfINS_18WriteMemoryRequestEE4typeEvE8typeinfo)
          to label %9 unwind label %12

9:                                                ; preds = %8
  %10 = call i32 @__cxa_atexit(ptr @_ZZN3dap6TypeOfINS_18WriteMemoryRequestEE4typeEvEN2TID2Ev, ptr @_ZZN3dap6TypeOfINS_18WriteMemoryRequestEE4typeEvE8typeinfo, ptr @__dso_handle) #3
  call void @__cxa_guard_release(ptr @_ZGVZN3dap6TypeOfINS_18WriteMemoryRequestEE4typeEvE8typeinfo) #3
  br label %11

11:                                               ; preds = %9, %5, %0
  ret ptr @_ZZN3dap6TypeOfINS_18WriteMemoryRequestEE4typeEvE8typeinfo

12:                                               ; preds = %8
  %13 = landingpad { ptr, i32 }
          cleanup
  %14 = extractvalue { ptr, i32 } %13, 0
  store ptr %14, ptr %1, align 8
  %15 = extractvalue { ptr, i32 } %13, 1
  store i32 %15, ptr %2, align 4
  call void @__cxa_guard_abort(ptr @_ZGVZN3dap6TypeOfINS_18WriteMemoryRequestEE4typeEvE8typeinfo) #3
  br label %16

16:                                               ; preds = %12
  %17 = load ptr, ptr %1, align 8
  %18 = load i32, ptr %2, align 4
  %19 = insertvalue { ptr, i32 } poison, ptr %17, 0
  %20 = insertvalue { ptr, i32 } %19, i32 %18, 1
  resume { ptr, i32 } %20
}